; Function Attrs: nounwind sspstrong uwtable
define dso_local void @qmp_block_job_pause(ptr noundef %0, ptr noundef %1) local_unnamed_addr #0 {
  %3 = alloca %struct.timeval, align 8
  %4 = load atomic i64, ptr @qemu_mutex_lock_func monotonic, align 8
  %5 = inttoptr i64 %4 to ptr
  tail call void %5(ptr noundef nonnull @job_mutex, ptr noundef nonnull @.str.183, i32 noundef 56) #14
  %.not.i = icmp eq ptr %0, null
  br i1 %.not.i, label %6, label %7

6:                                                ; preds = %2
  tail call void @__assert_fail(ptr noundef nonnull @.str.247, ptr noundef nonnull @.str.1, i32 noundef 3137, ptr noundef nonnull @__PRETTY_FUNCTION__.find_block_job_locked) #15
  unreachable

7:                                                ; preds = %2
  %8 = tail call ptr @block_job_get_locked(ptr noundef nonnull %0) #14
  %.not9.i = icmp eq ptr %8, null
  br i1 %.not9.i, label %find_block_job_locked.exit.thread, label %find_block_job_locked.exit

find_block_job_locked.exit.thread:                ; preds = %7
  tail call void (ptr, ptr, i32, ptr, i32, ptr, ...) @error_set_internal(ptr noundef %1, ptr noundef nonnull @.str.1, i32 noundef 3143, ptr noundef nonnull @__func__.find_block_job_locked, i32 noundef 2, ptr noundef nonnull @.str.248, ptr noundef nonnull %0) #14
  br label %glib_autoptr_cleanup_QemuLockable.exit

find_block_job_locked.exit:                       ; preds = %7
  %9 = load i32, ptr @trace_events_enabled_count, align 4
  %.not.i.i = icmp eq i32 %9, 0
  br i1 %.not.i.i, label %trace_qmp_block_job_pause.exit, label %10, !prof !21

10:                                               ; preds = %find_block_job_locked.exit
  %11 = load i16, ptr @_TRACE_QMP_BLOCK_JOB_PAUSE_DSTATE, align 2
  %.not2.i.i = icmp eq i16 %11, 0
  br i1 %.not2.i.i, label %trace_qmp_block_job_pause.exit, label %12

12:                                               ; preds = %10
  %13 = load i32, ptr @qemu_loglevel, align 4
  %14 = and i32 %13, 32768
  %.not3.i.i = icmp eq i32 %14, 0
  br i1 %.not3.i.i, label %trace_qmp_block_job_pause.exit, label %15

15:                                               ; preds = %12
  %16 = load i8, ptr @message_with_timestamp, align 1, !range !6, !noundef !7
  %17 = trunc nuw i8 %16 to i1
  br i1 %17, label %18, label %24

18:                                               ; preds = %15
  call void @llvm.lifetime.start.p0(i64 16, ptr nonnull %3) #14
  call void @llvm.memset.p0.i64(ptr noundef nonnull align 8 dereferenceable(16) %3, i8 0, i64 16, i1 false), !annotation !10
  %19 = call i32 @gettimeofday(ptr noundef nonnull %3, ptr noundef null) #14
  %20 = tail call i32 @qemu_get_thread_id() #14
  %21 = load i64, ptr %3, align 8
  %22 = getelementptr inbounds nuw i8, ptr %3, i64 8
  %23 = load i64, ptr %22, align 8
  tail call void (ptr, ...) @qemu_log(ptr noundef nonnull @.str.251, i32 noundef %20, i64 noundef %21, i64 noundef %23, ptr noundef nonnull %8) #14
  call void @llvm.lifetime.end.p0(i64 16, ptr nonnull %3) #14
  br label %trace_qmp_block_job_pause.exit

24:                                               ; preds = %15
  tail call void (ptr, ...) @qemu_log(ptr noundef nonnull @.str.252, ptr noundef nonnull %8) #14
  br label %trace_qmp_block_job_pause.exit

trace_qmp_block_job_pause.exit:                   ; preds = %find_block_job_locked.exit, %10, %12, %18, %24
  tail call void @job_user_pause_locked(ptr noundef nonnull %8, ptr noundef %1) #14
  br label %glib_autoptr_cleanup_QemuLockable.exit

glib_autoptr_cleanup_QemuLockable.exit:           ; preds = %find_block_job_locked.exit.thread, %trace_qmp_block_job_pause.exit
  tail call void @qemu_mutex_unlock_impl(ptr noundef nonnull @job_mutex, ptr noundef nonnull @.str.183, i32 noundef 56) #14
  ret void
}